; Function Attrs: mustprogress uwtable
define noundef ptr @grpc_ssl_server_credentials_create_options_using_config_fetcher(i32 noundef %0, ptr noundef %1, ptr noundef %2) local_unnamed_addr #3 personality ptr @__gxx_personality_v0 {
  %4 = alloca %"class.absl::lts_20240722::log_internal::LogMessage", align 8
  %5 = icmp eq ptr %1, null
  br i1 %5, label %6, label %9

6:                                                ; preds = %3
  call void @llvm.lifetime.start.p0(i64 16, ptr nonnull %4) #28
  call void @_ZN4absl12lts_2024072212log_internal10LogMessageC1EPKciNS2_8ErrorTagE(ptr noundef nonnull align 8 dereferenceable(16) %4, ptr noundef nonnull @.str, i32 noundef 388) #29
  invoke void @_ZN4absl12lts_2024072212log_internal10LogMessage19CopyToEncodedBufferILNS2_10StringTypeE0EEEvSt17basic_string_viewIcSt11char_traitsIcEE(ptr noundef nonnull align 8 dereferenceable(16) %4, i64 46, ptr nonnull @.str.22)
          to label %_ZN4absl12lts_2024072212log_internal10LogMessagelsILi47EEERS2_RAT__Kc.exit unwind label %7

_ZN4absl12lts_2024072212log_internal10LogMessagelsILi47EEERS2_RAT__Kc.exit: ; preds = %6
  call void @_ZN4absl12lts_2024072212log_internal10LogMessageD1Ev(ptr noundef nonnull align 8 dereferenceable(16) %4) #30
  call void @llvm.lifetime.end.p0(i64 16, ptr nonnull %4) #28
  br label %14

7:                                                ; preds = %6
  %8 = landingpad { ptr, i32 }
          cleanup
  call void @_ZN4absl12lts_2024072212log_internal10LogMessageD1Ev(ptr noundef nonnull align 8 dereferenceable(16) %4) #30
  call void @llvm.lifetime.end.p0(i64 16, ptr nonnull %4) #28
  resume { ptr, i32 } %8

9:                                                ; preds = %3
  %10 = tail call ptr @gpr_zalloc(i64 noundef 16)
  store ptr %1, ptr %10, align 8, !tbaa !110
  %11 = getelementptr inbounds nuw i8, ptr %10, i64 8
  store ptr %2, ptr %11, align 8, !tbaa !145
  %12 = tail call ptr @gpr_zalloc(i64 noundef 24)
  store i32 %0, ptr %12, align 8, !tbaa !116
  %13 = getelementptr inbounds nuw i8, ptr %12, i64 16
  store ptr %10, ptr %13, align 8, !tbaa !112
  br label %14

14:                                               ; preds = %9, %_ZN4absl12lts_2024072212log_internal10LogMessagelsILi47EEERS2_RAT__Kc.exit
  %.0 = phi ptr [ null, %_ZN4absl12lts_2024072212log_internal10LogMessagelsILi47EEERS2_RAT__Kc.exit ], [ %12, %9 ]
  ret ptr %.0
}